target datalayout = "e-m:e-p270:32:32-p271:32:32-p272:64:64-i64:64-i128:128-f80:128-n8:16:32:64-S128"
target triple = "x86_64-pc-linux-gnu"

%struct.pmix_tma = type { ptr, ptr, ptr, ptr, ptr, ptr, ptr, ptr }
%struct.pmix_regattr_t = type { ptr, [512 x i8], i16, ptr }

; Function Attrs: inlinehint nounwind uwtable
define internal ptr @pmix_tma_realloc(ptr noundef %0, ptr noundef %1, i64 noundef %2) #1 {
  %4 = alloca ptr, align 8
  %5 = alloca ptr, align 8
  %6 = alloca ptr, align 8
  %7 = alloca i64, align 8
  store ptr %0, ptr %5, align 8, !tbaa !8
  store ptr %1, ptr %6, align 8, !tbaa !51
  store i64 %2, ptr %7, align 8, !tbaa !30
  %8 = load ptr, ptr %5, align 8, !tbaa !8
  %9 = icmp ne ptr null, %8
  br i1 %9, label %10, label %18

10:                                               ; preds = %3
  %11 = load ptr, ptr %5, align 8, !tbaa !8
  %12 = getelementptr inbounds nuw %struct.pmix_tma, ptr %11, i32 0, i32 2
  %13 = load ptr, ptr %12, align 8, !tbaa !227
  %14 = load ptr, ptr %5, align 8, !tbaa !8
  %15 = load ptr, ptr %6, align 8, !tbaa !51
  %16 = load i64, ptr %7, align 8, !tbaa !30
  %17 = call ptr %13(ptr noundef %14, ptr noundef %15, i64 noundef %16)
  store ptr %17, ptr %4, align 8
  br label %22

18:                                               ; preds = %3
  %19 = load ptr, ptr %6, align 8, !tbaa !51
  %20 = load i64, ptr %7, align 8, !tbaa !30
  %21 = call ptr @realloc(ptr noundef %19, i64 noundef %20) #18
  store ptr %21, ptr %4, align 8
  br label %22

22:                                               ; preds = %18, %10
  %23 = load ptr, ptr %4, align 8
  ret ptr %23
}

; Function Attrs: inlinehint nounwind uwtable
define internal i32 @pmix_bfrops_base_tma_argv_count(ptr noundef %0, ptr noundef %1) #1 {
  %3 = alloca i32, align 4
  %4 = alloca ptr, align 8
  %5 = alloca ptr, align 8
  %6 = alloca ptr, align 8
  %7 = alloca i32, align 4
  %8 = alloca i32, align 4
  store ptr %0, ptr %4, align 8, !tbaa !16
  store ptr %1, ptr %5, align 8, !tbaa !8
  call void @llvm.lifetime.start.p0(i64 8, ptr %6) #15
  call void @llvm.lifetime.start.p0(i64 4, ptr %7) #15
  %9 = load ptr, ptr %4, align 8, !tbaa !16
  %10 = icmp eq ptr null, %9
  br i1 %10, label %11, label %12

11:                                               ; preds = %2
  store i32 0, ptr %3, align 4
  store i32 1, ptr %8, align 4
  br label %26

12:                                               ; preds = %2
  store i32 0, ptr %7, align 4, !tbaa !12
  %13 = load ptr, ptr %4, align 8, !tbaa !16
  store ptr %13, ptr %6, align 8, !tbaa !16
  br label %14

14:                                               ; preds = %19, %12
  %15 = load ptr, ptr %6, align 8, !tbaa !16
  %16 = load ptr, ptr %15, align 8, !tbaa !3
  %17 = icmp ne ptr %16, null
  br i1 %17, label %18, label %24

18:                                               ; preds = %14
  br label %19

19:                                               ; preds = %18
  %20 = load i32, ptr %7, align 4, !tbaa !12
  %21 = add nsw i32 %20, 1
  store i32 %21, ptr %7, align 4, !tbaa !12
  %22 = load ptr, ptr %6, align 8, !tbaa !16
  %23 = getelementptr inbounds nuw ptr, ptr %22, i32 1
  store ptr %23, ptr %6, align 8, !tbaa !16
  br label %14, !llvm.loop !18

24:                                               ; preds = %14
  %25 = load i32, ptr %7, align 4, !tbaa !12
  store i32 %25, ptr %3, align 4
  store i32 1, ptr %8, align 4
  br label %26

26:                                               ; preds = %24, %11
  call void @llvm.lifetime.end.p0(i64 4, ptr %7) #15
  call void @llvm.lifetime.end.p0(i64 8, ptr %6) #15
  %27 = load i32, ptr %3, align 4
  ret i32 %27
}

; Function Attrs: inlinehint nounwind uwtable
define internal ptr @pmix_tma_malloc(ptr noundef %0, i64 noundef %1) #1 {
  %3 = alloca ptr, align 8
  %4 = alloca ptr, align 8
  %5 = alloca i64, align 8
  store ptr %0, ptr %4, align 8, !tbaa !8
  store i64 %1, ptr %5, align 8, !tbaa !30
  %6 = load ptr, ptr %4, align 8, !tbaa !8
  %7 = icmp ne ptr null, %6
  br i1 %7, label %8, label %15

8:                                                ; preds = %2
  %9 = load ptr, ptr %4, align 8, !tbaa !8
  %10 = getelementptr inbounds nuw %struct.pmix_tma, ptr %9, i32 0, i32 0
  %11 = load ptr, ptr %10, align 8, !tbaa !226
  %12 = load ptr, ptr %4, align 8, !tbaa !8
  %13 = load i64, ptr %5, align 8, !tbaa !30
  %14 = call ptr %11(ptr noundef %12, i64 noundef %13)
  store ptr %14, ptr %3, align 8
  br label %18

15:                                               ; preds = %2
  %16 = load i64, ptr %5, align 8, !tbaa !30
  %17 = call noalias ptr @malloc(i64 noundef %16) #17
  store ptr %17, ptr %3, align 8
  br label %18

18:                                               ; preds = %15, %8
  %19 = load ptr, ptr %3, align 8
  ret ptr %19
}

; Function Attrs: inlinehint nounwind uwtable
define internal void @pmix_strncpy(ptr noundef %0, ptr noundef %1, i64 noundef %2) #1 {
  %4 = alloca ptr, align 8
  %5 = alloca ptr, align 8
  %6 = alloca i64, align 8
  %7 = alloca i64, align 8
  store ptr %0, ptr %4, align 8, !tbaa !3
  store ptr %1, ptr %5, align 8, !tbaa !3
  store i64 %2, ptr %6, align 8, !tbaa !30
  call void @llvm.lifetime.start.p0(i64 8, ptr %7) #15
  store i64 0, ptr %7, align 8, !tbaa !30
  br label %8

8:                                                ; preds = %22, %3
  %9 = load i64, ptr %7, align 8, !tbaa !30
  %10 = load i64, ptr %6, align 8, !tbaa !30
  %11 = icmp ult i64 %9, %10
  br i1 %11, label %12, label %29

12:                                               ; preds = %8
  %13 = load ptr, ptr %5, align 8, !tbaa !3
  %14 = load i8, ptr %13, align 1, !tbaa !29
  %15 = load ptr, ptr %4, align 8, !tbaa !3
  store i8 %14, ptr %15, align 1, !tbaa !29
  %16 = load ptr, ptr %5, align 8, !tbaa !3
  %17 = load i8, ptr %16, align 1, !tbaa !29
  %18 = sext i8 %17 to i32
  %19 = icmp eq i32 0, %18
  br i1 %19, label %20, label %21

20:                                               ; preds = %12
  br label %29

21:                                               ; preds = %12
  br label %22

22:                                               ; preds = %21
  %23 = load i64, ptr %7, align 8, !tbaa !30
  %24 = add i64 %23, 1
  store i64 %24, ptr %7, align 8, !tbaa !30
  %25 = load ptr, ptr %5, align 8, !tbaa !3
  %26 = getelementptr inbounds nuw i8, ptr %25, i32 1
  store ptr %26, ptr %5, align 8, !tbaa !3
  %27 = load ptr, ptr %4, align 8, !tbaa !3
  %28 = getelementptr inbounds nuw i8, ptr %27, i32 1
  store ptr %28, ptr %4, align 8, !tbaa !3
  br label %8, !llvm.loop !224

29:                                               ; preds = %20, %8
  %30 = load ptr, ptr %4, align 8, !tbaa !3
  store i8 0, ptr %30, align 1, !tbaa !29
  call void @llvm.lifetime.end.p0(i64 8, ptr %7) #15
  ret void
}

; Function Attrs: inlinehint nounwind uwtable
define internal i32 @pmix_bfrops_base_tma_argv_append_nosize(ptr noundef %0, ptr noundef %1, ptr noundef %2) #1 {
  %4 = alloca i32, align 4
  %5 = alloca ptr, align 8
  %6 = alloca ptr, align 8
  %7 = alloca ptr, align 8
  %8 = alloca i32, align 4
  %9 = alloca i32, align 4
  store ptr %0, ptr %5, align 8, !tbaa !20
  store ptr %1, ptr %6, align 8, !tbaa !3
  store ptr %2, ptr %7, align 8, !tbaa !8
  call void @llvm.lifetime.start.p0(i64 4, ptr %8) #15
  %10 = load ptr, ptr %5, align 8, !tbaa !20
  %11 = load ptr, ptr %10, align 8, !tbaa !16
  %12 = icmp eq ptr null, %11
  br i1 %12, label %13, label %28

13:                                               ; preds = %3
  %14 = load ptr, ptr %7, align 8, !tbaa !8
  %15 = call ptr @pmix_tma_malloc(ptr noundef %14, i64 noundef 16)
  %16 = load ptr, ptr %5, align 8, !tbaa !20
  store ptr %15, ptr %16, align 8, !tbaa !16
  %17 = load ptr, ptr %5, align 8, !tbaa !20
  %18 = load ptr, ptr %17, align 8, !tbaa !16
  %19 = icmp eq ptr null, %18
  br i1 %19, label %20, label %21

20:                                               ; preds = %13
  store i32 -29, ptr %4, align 4
  store i32 1, ptr %9, align 4
  br label %72

21:                                               ; preds = %13
  store i32 0, ptr %8, align 4, !tbaa !12
  %22 = load ptr, ptr %5, align 8, !tbaa !20
  %23 = load ptr, ptr %22, align 8, !tbaa !16
  %24 = getelementptr inbounds ptr, ptr %23, i64 0
  store ptr null, ptr %24, align 8, !tbaa !3
  %25 = load ptr, ptr %5, align 8, !tbaa !20
  %26 = load ptr, ptr %25, align 8, !tbaa !16
  %27 = getelementptr inbounds ptr, ptr %26, i64 1
  store ptr null, ptr %27, align 8, !tbaa !3
  br label %47

28:                                               ; preds = %3
  %29 = load ptr, ptr %5, align 8, !tbaa !20
  %30 = load ptr, ptr %29, align 8, !tbaa !16
  %31 = load ptr, ptr %7, align 8, !tbaa !8
  %32 = call i32 @pmix_bfrops_base_tma_argv_count(ptr noundef %30, ptr noundef %31)
  store i32 %32, ptr %8, align 4, !tbaa !12
  %33 = load ptr, ptr %7, align 8, !tbaa !8
  %34 = load ptr, ptr %5, align 8, !tbaa !20
  %35 = load ptr, ptr %34, align 8, !tbaa !16
  %36 = load i32, ptr %8, align 4, !tbaa !12
  %37 = add nsw i32 %36, 2
  %38 = sext i32 %37 to i64
  %39 = mul i64 %38, 8
  %40 = call ptr @pmix_tma_realloc(ptr noundef %33, ptr noundef %35, i64 noundef %39)
  %41 = load ptr, ptr %5, align 8, !tbaa !20
  store ptr %40, ptr %41, align 8, !tbaa !16
  %42 = load ptr, ptr %5, align 8, !tbaa !20
  %43 = load ptr, ptr %42, align 8, !tbaa !16
  %44 = icmp eq ptr null, %43
  br i1 %44, label %45, label %46

45:                                               ; preds = %28
  store i32 -29, ptr %4, align 4
  store i32 1, ptr %9, align 4
  br label %72

46:                                               ; preds = %28
  br label %47

47:                                               ; preds = %46, %21
  %48 = load ptr, ptr %7, align 8, !tbaa !8
  %49 = load ptr, ptr %6, align 8, !tbaa !3
  %50 = call ptr @pmix_tma_strdup(ptr noundef %48, ptr noundef %49)
  %51 = load ptr, ptr %5, align 8, !tbaa !20
  %52 = load ptr, ptr %51, align 8, !tbaa !16
  %53 = load i32, ptr %8, align 4, !tbaa !12
  %54 = sext i32 %53 to i64
  %55 = getelementptr inbounds ptr, ptr %52, i64 %54
  store ptr %50, ptr %55, align 8, !tbaa !3
  %56 = load ptr, ptr %5, align 8, !tbaa !20
  %57 = load ptr, ptr %56, align 8, !tbaa !16
  %58 = load i32, ptr %8, align 4, !tbaa !12
  %59 = sext i32 %58 to i64
  %60 = getelementptr inbounds ptr, ptr %57, i64 %59
  %61 = load ptr, ptr %60, align 8, !tbaa !3
  %62 = icmp eq ptr null, %61
  br i1 %62, label %63, label %64

63:                                               ; preds = %47
  store i32 -29, ptr %4, align 4
  store i32 1, ptr %9, align 4
  br label %72

64:                                               ; preds = %47
  %65 = load i32, ptr %8, align 4, !tbaa !12
  %66 = add nsw i32 %65, 1
  store i32 %66, ptr %8, align 4, !tbaa !12
  %67 = load ptr, ptr %5, align 8, !tbaa !20
  %68 = load ptr, ptr %67, align 8, !tbaa !16
  %69 = load i32, ptr %8, align 4, !tbaa !12
  %70 = sext i32 %69 to i64
  %71 = getelementptr inbounds ptr, ptr %68, i64 %70
  store ptr null, ptr %71, align 8, !tbaa !3
  store i32 0, ptr %4, align 4
  store i32 1, ptr %9, align 4
  br label %72

72:                                               ; preds = %64, %63, %45, %20
  call void @llvm.lifetime.end.p0(i64 4, ptr %8) #15
  %73 = load i32, ptr %4, align 4
  ret i32 %73
}

; Function Attrs: inlinehint nounwind uwtable
define internal void @pmix_bfrops_base_tma_load_key(ptr noundef %0, ptr noundef %1, ptr noundef %2) #1 {
  %4 = alloca ptr, align 8
  %5 = alloca ptr, align 8
  %6 = alloca ptr, align 8
  store ptr %0, ptr %4, align 8, !tbaa !3
  store ptr %1, ptr %5, align 8, !tbaa !3
  store ptr %2, ptr %6, align 8, !tbaa !8
  %7 = load ptr, ptr %4, align 8, !tbaa !3
  call void @llvm.memset.p0.i64(ptr align 1 %7, i8 0, i64 512, i1 false)
  %8 = load ptr, ptr %5, align 8, !tbaa !3
  %9 = icmp ne ptr null, %8
  br i1 %9, label %10, label %13

10:                                               ; preds = %3
  %11 = load ptr, ptr %4, align 8, !tbaa !3
  %12 = load ptr, ptr %5, align 8, !tbaa !3
  call void @pmix_strncpy(ptr noundef %11, ptr noundef %12, i64 noundef 511)
  br label %13

13:                                               ; preds = %10, %3
  ret void
}

; Function Attrs: inlinehint nounwind uwtable
define internal ptr @pmix_tma_strdup(ptr noundef %0, ptr noundef %1) #1 {
  %3 = alloca ptr, align 8
  %4 = alloca ptr, align 8
  %5 = alloca ptr, align 8
  store ptr %0, ptr %4, align 8, !tbaa !8
  store ptr %1, ptr %5, align 8, !tbaa !3
  %6 = load ptr, ptr %4, align 8, !tbaa !8
  %7 = icmp ne ptr null, %6
  br i1 %7, label %8, label %15

8:                                                ; preds = %2
  %9 = load ptr, ptr %4, align 8, !tbaa !8
  %10 = getelementptr inbounds nuw %struct.pmix_tma, ptr %9, i32 0, i32 3
  %11 = load ptr, ptr %10, align 8, !tbaa !228
  %12 = load ptr, ptr %4, align 8, !tbaa !8
  %13 = load ptr, ptr %5, align 8, !tbaa !3
  %14 = call ptr %11(ptr noundef %12, ptr noundef %13)
  store ptr %14, ptr %3, align 8
  br label %18

15:                                               ; preds = %2
  %16 = load ptr, ptr %5, align 8, !tbaa !3
  %17 = call noalias ptr @strdup(ptr noundef %16) #15
  store ptr %17, ptr %3, align 8
  br label %18

18:                                               ; preds = %15, %8
  %19 = load ptr, ptr %3, align 8
  ret ptr %19
}

; Function Attrs: inlinehint nounwind uwtable
define internal void @pmix_bfrops_base_tma_regattr_load(ptr noundef %0, ptr noundef %1, ptr noundef %2, i16 noundef zeroext %3, ptr noundef %4, ptr noundef %5) #1 {
  %7 = alloca ptr, align 8
  %8 = alloca ptr, align 8
  %9 = alloca ptr, align 8
  %10 = alloca i16, align 2
  %11 = alloca ptr, align 8
  %12 = alloca ptr, align 8
  store ptr %0, ptr %7, align 8, !tbaa !196
  store ptr %1, ptr %8, align 8, !tbaa !3
  store ptr %2, ptr %9, align 8, !tbaa !3
  store i16 %3, ptr %10, align 2, !tbaa !49
  store ptr %4, ptr %11, align 8, !tbaa !3
  store ptr %5, ptr %12, align 8, !tbaa !8
  %13 = load ptr, ptr %8, align 8, !tbaa !3
  %14 = icmp ne ptr null, %13
  br i1 %14, label %15, label %21

15:                                               ; preds = %6
  %16 = load ptr, ptr %12, align 8, !tbaa !8
  %17 = load ptr, ptr %8, align 8, !tbaa !3
  %18 = call ptr @pmix_tma_strdup(ptr noundef %16, ptr noundef %17)
  %19 = load ptr, ptr %7, align 8, !tbaa !196
  %20 = getelementptr inbounds nuw %struct.pmix_regattr_t, ptr %19, i32 0, i32 0
  store ptr %18, ptr %20, align 8, !tbaa !198
  br label %21

21:                                               ; preds = %15, %6
  %22 = load ptr, ptr %9, align 8, !tbaa !3
  %23 = icmp ne ptr null, %22
  br i1 %23, label %24, label %30

24:                                               ; preds = %21
  %25 = load ptr, ptr %7, align 8, !tbaa !196
  %26 = getelementptr inbounds nuw %struct.pmix_regattr_t, ptr %25, i32 0, i32 1
  %27 = getelementptr inbounds [512 x i8], ptr %26, i64 0, i64 0
  %28 = load ptr, ptr %9, align 8, !tbaa !3
  %29 = load ptr, ptr %12, align 8, !tbaa !8
  call void @pmix_bfrops_base_tma_load_key(ptr noundef %27, ptr noundef %28, ptr noundef %29)
  br label %30

30:                                               ; preds = %24, %21
  %31 = load i16, ptr %10, align 2, !tbaa !49
  %32 = load ptr, ptr %7, align 8, !tbaa !196
  %33 = getelementptr inbounds nuw %struct.pmix_regattr_t, ptr %32, i32 0, i32 2
  store i16 %31, ptr %33, align 8, !tbaa !200
  %34 = load ptr, ptr %11, align 8, !tbaa !3
  %35 = icmp ne ptr null, %34
  br i1 %35, label %36, label %42

36:                                               ; preds = %30
  %37 = load ptr, ptr %7, align 8, !tbaa !196
  %38 = getelementptr inbounds nuw %struct.pmix_regattr_t, ptr %37, i32 0, i32 3
  %39 = load ptr, ptr %11, align 8, !tbaa !3
  %40 = load ptr, ptr %12, align 8, !tbaa !8
  %41 = call i32 @pmix_bfrops_base_tma_argv_append_nosize(ptr noundef %38, ptr noundef %39, ptr noundef %40)
  br label %42

42:                                               ; preds = %36, %30
  ret void
}

; Function Attrs: nounwind uwtable
define void @PMIx_Regattr_load(ptr noundef %0, ptr noundef %1, ptr noundef %2, i16 noundef zeroext %3, ptr noundef %4) #0 {
  %6 = alloca ptr, align 8
  %7 = alloca ptr, align 8
  %8 = alloca ptr, align 8
  %9 = alloca i16, align 2
  %10 = alloca ptr, align 8
  store ptr %0, ptr %6, align 8, !tbaa !196
  store ptr %1, ptr %7, align 8, !tbaa !3
  store ptr %2, ptr %8, align 8, !tbaa !3
  store i16 %3, ptr %9, align 2, !tbaa !49
  store ptr %4, ptr %10, align 8, !tbaa !3
  %11 = load ptr, ptr %6, align 8, !tbaa !196
  %12 = load ptr, ptr %7, align 8, !tbaa !3
  %13 = load ptr, ptr %8, align 8, !tbaa !3
  %14 = load i16, ptr %9, align 2, !tbaa !49
  %15 = load ptr, ptr %10, align 8, !tbaa !3
  call void @pmix_bfrops_base_tma_regattr_load(ptr noundef %11, ptr noundef %12, ptr noundef %13, i16 noundef zeroext %14, ptr noundef %15, ptr noundef null)
  ret void
}