; Function Attrs: nounwind uwtable
define void @PMIx_Regattr_load(ptr noundef captures(none) %0, ptr noundef readonly captures(address_is_null) %1, ptr noundef readonly captures(address_is_null) %2, i16 noundef zeroext %3, ptr noundef readonly captures(address_is_null) %4) local_unnamed_addr #6 {
  %.not.i = icmp eq ptr %1, null
  br i1 %.not.i, label %8, label %6

6:                                                ; preds = %5
  %7 = tail call noalias ptr @strdup(ptr noundef nonnull readonly %1) #44
  store ptr %7, ptr %0, align 8, !tbaa !54
  br label %8

8:                                                ; preds = %6, %5
  %.not15.i = icmp eq ptr %2, null
  br i1 %.not15.i, label %17, label %9

9:                                                ; preds = %8
  %10 = getelementptr inbounds nuw i8, ptr %0, i64 8
  tail call void @llvm.memset.p0.i64(ptr noundef nonnull align 1 dereferenceable(512) %10, i8 0, i64 512, i1 false)
  br label %.lr.ph.i.i.i

.lr.ph.i.i.i:                                     ; preds = %13, %9
  %.012.i.i.i = phi i64 [ %14, %13 ], [ 0, %9 ]
  %.0811.i.i.i = phi ptr [ %16, %13 ], [ %10, %9 ]
  %.0910.i.i.i = phi ptr [ %15, %13 ], [ %2, %9 ]
  %11 = load i8, ptr %.0910.i.i.i, align 1, !tbaa !3
  store i8 %11, ptr %.0811.i.i.i, align 1, !tbaa !3
  %12 = icmp eq i8 %11, 0
  br i1 %12, label %pmix_bfrops_base_tma_load_key.exit.i, label %13

13:                                               ; preds = %.lr.ph.i.i.i
  %14 = add nuw nsw i64 %.012.i.i.i, 1
  %15 = getelementptr inbounds nuw i8, ptr %.0910.i.i.i, i64 1
  %16 = getelementptr inbounds nuw i8, ptr %.0811.i.i.i, i64 1
  %exitcond.not.i.i.i = icmp eq i64 %14, 511
  br i1 %exitcond.not.i.i.i, label %pmix_bfrops_base_tma_load_key.exit.i, label %.lr.ph.i.i.i, !llvm.loop !6

pmix_bfrops_base_tma_load_key.exit.i:             ; preds = %13, %.lr.ph.i.i.i
  %.08.lcssa.i.i.i = phi ptr [ %.0811.i.i.i, %.lr.ph.i.i.i ], [ %16, %13 ]
  store i8 0, ptr %.08.lcssa.i.i.i, align 1, !tbaa !3
  br label %17

17:                                               ; preds = %pmix_bfrops_base_tma_load_key.exit.i, %8
  %18 = getelementptr inbounds nuw i8, ptr %0, i64 520
  store i16 %3, ptr %18, align 8, !tbaa !136
  %.not16.i = icmp eq ptr %4, null
  br i1 %.not16.i, label %pmix_bfrops_base_tma_regattr_load.exit, label %19

19:                                               ; preds = %17
  %20 = getelementptr inbounds nuw i8, ptr %0, i64 528
  %21 = load ptr, ptr %20, align 8, !tbaa !16
  %22 = icmp eq ptr %21, null
  br i1 %22, label %23, label %.preheader.i.i.i

23:                                               ; preds = %19
  %calloc.i.i = tail call dereferenceable_or_null(16) ptr @calloc(i64 1, i64 16)
  store ptr %calloc.i.i, ptr %20, align 8, !tbaa !16
  %24 = icmp eq ptr %calloc.i.i, null
  br i1 %24, label %pmix_bfrops_base_tma_regattr_load.exit, label %34

.preheader.i.i.i:                                 ; preds = %19
  %25 = load ptr, ptr %21, align 8, !tbaa !12
  %.not1.i.i.i = icmp eq ptr %25, null
  br i1 %.not1.i.i.i, label %pmix_bfrops_base_tma_argv_count.exit.i.i, label %.lr.ph.i.i17.i

.lr.ph.i.i17.i:                                   ; preds = %.preheader.i.i.i, %.lr.ph.i.i17.i
  %.03.i.i.i = phi i32 [ %26, %.lr.ph.i.i17.i ], [ 0, %.preheader.i.i.i ]
  %.062.i.i.i = phi ptr [ %27, %.lr.ph.i.i17.i ], [ %21, %.preheader.i.i.i ]
  %26 = add nuw nsw i32 %.03.i.i.i, 1
  %27 = getelementptr inbounds nuw i8, ptr %.062.i.i.i, i64 8
  %28 = load ptr, ptr %27, align 8, !tbaa !12
  %.not.i.i.i = icmp eq ptr %28, null
  br i1 %.not.i.i.i, label %pmix_bfrops_base_tma_argv_count.exit.i.i, label %.lr.ph.i.i17.i, !llvm.loop !15

pmix_bfrops_base_tma_argv_count.exit.i.i:         ; preds = %.lr.ph.i.i17.i, %.preheader.i.i.i
  %.07.i.i.i = phi i32 [ 0, %.preheader.i.i.i ], [ %26, %.lr.ph.i.i17.i ]
  %29 = add nsw i32 %.07.i.i.i, 2
  %30 = sext i32 %29 to i64
  %31 = shl nsw i64 %30, 3
  %32 = tail call noalias noundef ptr @realloc(ptr noundef nonnull %21, i64 noundef %31) #43
  store ptr %32, ptr %20, align 8, !tbaa !16
  %33 = icmp eq ptr %32, null
  br i1 %33, label %pmix_bfrops_base_tma_regattr_load.exit, label %34

34:                                               ; preds = %pmix_bfrops_base_tma_argv_count.exit.i.i, %23
  %35 = phi ptr [ %32, %pmix_bfrops_base_tma_argv_count.exit.i.i ], [ %calloc.i.i, %23 ]
  %.0.i.i = phi i32 [ %.07.i.i.i, %pmix_bfrops_base_tma_argv_count.exit.i.i ], [ 0, %23 ]
  %36 = tail call noalias ptr @strdup(ptr noundef nonnull readonly %4) #44
  %37 = sext i32 %.0.i.i to i64
  %38 = getelementptr inbounds ptr, ptr %35, i64 %37
  store ptr %36, ptr %38, align 8, !tbaa !12
  %39 = icmp eq ptr %36, null
  br i1 %39, label %pmix_bfrops_base_tma_regattr_load.exit, label %40

40:                                               ; preds = %34
  %41 = getelementptr i8, ptr %38, i64 8
  store ptr null, ptr %41, align 8, !tbaa !12
  br label %pmix_bfrops_base_tma_regattr_load.exit

pmix_bfrops_base_tma_regattr_load.exit:           ; preds = %17, %23, %pmix_bfrops_base_tma_argv_count.exit.i.i, %34, %40
  ret void
}